target datalayout = "e-m:e-p270:32:32-p271:32:32-p272:64:64-i64:64-i128:128-f80:128-n8:16:32:64-S128"
target triple = "x86_64-pc-linux-gnu"

%struct.FramebufferHashTableKey = type { [4 x ptr], i32, [4 x ptr], i32, ptr, i32, i32 }

; Function Attrs: nounwind uwtable
define internal i32 @VULKAN_INTERNAL_FramebufferHashFunction(ptr noundef %0, ptr noundef %1) #0 {
  %3 = alloca ptr, align 8
  %4 = alloca ptr, align 8
  %5 = alloca ptr, align 8
  %6 = alloca i32, align 4
  %7 = alloca i32, align 4
  %8 = alloca i32, align 4
  %9 = alloca i32, align 4
  store ptr %0, ptr %3, align 8
  store ptr %1, ptr %4, align 8
  call void @llvm.lifetime.start.p0(i64 8, ptr %5) #9
  %10 = load ptr, ptr %4, align 8
  store ptr %10, ptr %5, align 8
  call void @llvm.lifetime.start.p0(i64 4, ptr %6) #9
  store i32 31, ptr %6, align 4
  call void @llvm.lifetime.start.p0(i64 4, ptr %7) #9
  store i32 1, ptr %7, align 4
  call void @llvm.lifetime.start.p0(i64 4, ptr %8) #9
  store i32 0, ptr %8, align 4
  br label %11

11:                                               ; preds = %30, %2
  %12 = load i32, ptr %8, align 4
  %13 = load ptr, ptr %5, align 8
  %14 = getelementptr inbounds nuw %struct.FramebufferHashTableKey, ptr %13, i32 0, i32 1
  %15 = load i32, ptr %14, align 8
  %16 = icmp ult i32 %12, %15
  br i1 %16, label %18, label %17

17:                                               ; preds = %11
  call void @llvm.lifetime.end.p0(i64 4, ptr %8) #9
  br label %33

18:                                               ; preds = %11
  %19 = load i32, ptr %7, align 4
  %20 = mul i32 %19, 31
  %21 = load ptr, ptr %5, align 8
  %22 = getelementptr inbounds nuw %struct.FramebufferHashTableKey, ptr %21, i32 0, i32 0
  %23 = load i32, ptr %8, align 4
  %24 = zext i32 %23 to i64
  %25 = getelementptr inbounds nuw [4 x ptr], ptr %22, i64 0, i64 %24
  %26 = load ptr, ptr %25, align 8
  %27 = ptrtoint ptr %26 to i64
  %28 = trunc i64 %27 to i32
  %29 = add i32 %20, %28
  store i32 %29, ptr %7, align 4
  br label %30

30:                                               ; preds = %18
  %31 = load i32, ptr %8, align 4
  %32 = add i32 %31, 1
  store i32 %32, ptr %8, align 4
  br label %11, !llvm.loop !73

33:                                               ; preds = %17
  call void @llvm.lifetime.start.p0(i64 4, ptr %9) #9
  store i32 0, ptr %9, align 4
  br label %34

34:                                               ; preds = %53, %33
  %35 = load i32, ptr %9, align 4
  %36 = load ptr, ptr %5, align 8
  %37 = getelementptr inbounds nuw %struct.FramebufferHashTableKey, ptr %36, i32 0, i32 3
  %38 = load i32, ptr %37, align 8
  %39 = icmp ult i32 %35, %38
  br i1 %39, label %41, label %40

40:                                               ; preds = %34
  call void @llvm.lifetime.end.p0(i64 4, ptr %9) #9
  br label %56

41:                                               ; preds = %34
  %42 = load i32, ptr %7, align 4
  %43 = mul i32 %42, 31
  %44 = load ptr, ptr %5, align 8
  %45 = getelementptr inbounds nuw %struct.FramebufferHashTableKey, ptr %44, i32 0, i32 2
  %46 = load i32, ptr %9, align 4
  %47 = zext i32 %46 to i64
  %48 = getelementptr inbounds nuw [4 x ptr], ptr %45, i64 0, i64 %47
  %49 = load ptr, ptr %48, align 8
  %50 = ptrtoint ptr %49 to i64
  %51 = trunc i64 %50 to i32
  %52 = add i32 %43, %51
  store i32 %52, ptr %7, align 4
  br label %53

53:                                               ; preds = %41
  %54 = load i32, ptr %9, align 4
  %55 = add i32 %54, 1
  store i32 %55, ptr %9, align 4
  br label %34, !llvm.loop !74

56:                                               ; preds = %40
  %57 = load i32, ptr %7, align 4
  %58 = mul i32 %57, 31
  %59 = load ptr, ptr %5, align 8
  %60 = getelementptr inbounds nuw %struct.FramebufferHashTableKey, ptr %59, i32 0, i32 4
  %61 = load ptr, ptr %60, align 8
  %62 = ptrtoint ptr %61 to i64
  %63 = trunc i64 %62 to i32
  %64 = add i32 %58, %63
  store i32 %64, ptr %7, align 4
  %65 = load i32, ptr %7, align 4
  %66 = mul i32 %65, 31
  %67 = load ptr, ptr %5, align 8
  %68 = getelementptr inbounds nuw %struct.FramebufferHashTableKey, ptr %67, i32 0, i32 5
  %69 = load i32, ptr %68, align 8
  %70 = add i32 %66, %69
  store i32 %70, ptr %7, align 4
  %71 = load i32, ptr %7, align 4
  %72 = mul i32 %71, 31
  %73 = load ptr, ptr %5, align 8
  %74 = getelementptr inbounds nuw %struct.FramebufferHashTableKey, ptr %73, i32 0, i32 6
  %75 = load i32, ptr %74, align 4
  %76 = add i32 %72, %75
  store i32 %76, ptr %7, align 4
  %77 = load i32, ptr %7, align 4
  call void @llvm.lifetime.end.p0(i64 4, ptr %7) #9
  call void @llvm.lifetime.end.p0(i64 4, ptr %6) #9
  call void @llvm.lifetime.end.p0(i64 8, ptr %5) #9
  ret i32 %77
}