; Function Attrs: nofree norecurse nosync nounwind memory(argmem: read) uwtable
define internal i32 @VULKAN_INTERNAL_FramebufferHashFunction(ptr readnone captures(none) %0, ptr noundef readonly captures(none) %1) #11 {
  %3 = getelementptr inbounds nuw i8, ptr %1, i64 32
  %4 = load i32, ptr %3, align 8
  %.not = icmp eq i32 %4, 0
  br i1 %.not, label %.preheader, label %.lr.ph.preheader

.lr.ph.preheader:                                 ; preds = %2
  %wide.trip.count = zext i32 %4 to i64
  br label %.lr.ph

.preheader:                                       ; preds = %.lr.ph, %2
  %.020.lcssa = phi i32 [ 1, %2 ], [ %13, %.lr.ph ]
  %5 = getelementptr inbounds nuw i8, ptr %1, i64 72
  %6 = load i32, ptr %5, align 8
  %.not27 = icmp eq i32 %6, 0
  br i1 %.not27, label %._crit_edge, label %.lr.ph25

.lr.ph25:                                         ; preds = %.preheader
  %7 = getelementptr inbounds nuw i8, ptr %1, i64 40
  %wide.trip.count33 = zext i32 %6 to i64
  br label %28

.lr.ph:                                           ; preds = %.lr.ph.preheader, %.lr.ph
  %indvars.iv = phi i64 [ 0, %.lr.ph.preheader ], [ %indvars.iv.next, %.lr.ph ]
  %.02021 = phi i32 [ 1, %.lr.ph.preheader ], [ %13, %.lr.ph ]
  %8 = mul i32 %.02021, 31
  %9 = getelementptr inbounds nuw [4 x ptr], ptr %1, i64 0, i64 %indvars.iv
  %10 = load ptr, ptr %9, align 8
  %11 = ptrtoint ptr %10 to i64
  %12 = trunc i64 %11 to i32
  %13 = add i32 %8, %12
  %indvars.iv.next = add nuw nsw i64 %indvars.iv, 1
  %exitcond.not = icmp eq i64 %indvars.iv.next, %wide.trip.count
  br i1 %exitcond.not, label %.preheader, label %.lr.ph, !llvm.loop !93

._crit_edge:                                      ; preds = %28, %.preheader
  %.1.lcssa = phi i32 [ %.020.lcssa, %.preheader ], [ %34, %28 ]
  %14 = mul i32 %.1.lcssa, 31
  %15 = getelementptr inbounds nuw i8, ptr %1, i64 80
  %16 = load ptr, ptr %15, align 8
  %17 = ptrtoint ptr %16 to i64
  %18 = trunc i64 %17 to i32
  %19 = add i32 %14, %18
  %20 = mul i32 %19, 31
  %21 = getelementptr inbounds nuw i8, ptr %1, i64 88
  %22 = load i32, ptr %21, align 8
  %23 = add i32 %20, %22
  %24 = mul i32 %23, 31
  %25 = getelementptr inbounds nuw i8, ptr %1, i64 92
  %26 = load i32, ptr %25, align 4
  %27 = add i32 %24, %26
  ret i32 %27

28:                                               ; preds = %.lr.ph25, %28
  %indvars.iv30 = phi i64 [ 0, %.lr.ph25 ], [ %indvars.iv.next31, %28 ]
  %.123 = phi i32 [ %.020.lcssa, %.lr.ph25 ], [ %34, %28 ]
  %29 = mul i32 %.123, 31
  %30 = getelementptr inbounds nuw [4 x ptr], ptr %7, i64 0, i64 %indvars.iv30
  %31 = load ptr, ptr %30, align 8
  %32 = ptrtoint ptr %31 to i64
  %33 = trunc i64 %32 to i32
  %34 = add i32 %29, %33
  %indvars.iv.next31 = add nuw nsw i64 %indvars.iv30, 1
  %exitcond34.not = icmp eq i64 %indvars.iv.next31, %wide.trip.count33
  br i1 %exitcond34.not, label %._crit_edge, label %28, !llvm.loop !94
}